Certificate:
    Data:
        Version: 3 (0x2)
        Serial Number: 1 (0x1)
    Signature Algorithm: sha1WithRSAEncryption
        Issuer: C=DE, ST=NRW, L=Dortmund, O=tibula.de, OU=cert, CN=tibula.de/emailAddress=team@tibula.de
        Validity
            Not Before: Feb  4 22:15:38 2015 GMT
            Not After : Feb  4 22:15:38 2016 GMT
        Subject: C=DE, ST=NRW, O=tibula.de, OU=user, CN=matze/emailAddress=matthias@wuebbeling.com
        Subject Public Key Info:
            Public Key Algorithm: rsaEncryption
                Public-Key: (4096 bit)
                Modulus:
                    00:de:71:82:09:9e:45:28:a0:0d:77:be:bd:19:8b:
                    e0:c8:4c:e3:27:70:2b:01:67:b4:01:a6:c8:06:15:
                    82:e4:3d:d1:7b:65:bb:a7:e9:b3:02:ce:d9:d4:f8:
                    a2:99:56:e2:78:46:fc:b3:1f:7f:3a:72:e8:06:3f:
                    84:7c:ac:54:a3:13:e5:4d:c6:42:14:7e:c1:27:db:
                    f5:03:ff:15:70:f8:cf:a8:78:a8:09:49:ee:9f:5f:
                    06:ff:f3:af:bd:d4:6c:05:06:24:05:5e:5a:bc:08:
                    2a:1d:01:01:9c:32:c1:3b:fd:eb:49:20:e0:5c:ae:
                    4f:05:f2:42:8c:bb:ea:0e:8c:ba:ba:7c:b6:7b:11:
                    cb:17:15:ce:8b:20:a4:dc:83:c2:28:51:9e:f4:75:
                    ab:e3:34:8d:cd:39:14:17:f8:a5:60:f3:ae:46:9c:
                    90:be:3f:96:bd:b0:80:21:fc:50:d3:50:55:0d:7c:
                    d7:c9:67:12:63:3b:35:9d:a2:21:c8:6d:35:a0:11:
                    b9:01:34:ed:5c:bb:89:16:17:43:e7:67:fa:35:3a:
                    8a:36:64:ad:61:ee:e8:8d:a1:fc:04:c2:ec:6b:3e:
                    af:e4:64:93:27:ed:f5:ef:d3:7f:c1:cf:fd:8f:11:
                    b6:c7:b6:7c:52:7d:46:fd:77:cd:06:e3:38:aa:66:
                    65:5a:30:68:8b:21:45:d1:03:16:dd:2c:83:06:07:
                    79:8b:a3:47:c7:16:ec:62:18:62:43:78:70:04:bd:
                    a6:00:05:5b:24:aa:7e:65:b0:81:01:71:35:81:bd:
                    5c:fb:b2:6e:8e:ad:a6:b8:e3:6e:5f:3c:fd:90:ff:
                    47:d8:7e:ac:cd:35:e6:7a:4c:e6:7e:48:c2:13:35:
                    e5:d7:9a:e8:84:b9:f6:73:da:12:15:ef:cd:c5:5d:
                    d4:a1:de:67:3b:7e:3c:11:a7:96:8a:7a:97:31:73:
                    cb:26:49:74:58:11:5d:fb:f8:ef:de:b2:87:29:b8:
                    72:f3:13:5a:44:fd:c9:d6:e3:d2:15:9a:55:31:13:
                    0c:93:86:53:d9:0b:cd:3f:20:c0:ca:35:b7:b1:77:
                    d6:24:89:6a:16:04:51:a1:e0:87:1a:18:7f:96:58:
                    e7:5c:9c:15:17:eb:b7:55:05:1b:a5:1c:8d:d4:e6:
                    cb:a5:96:fd:8f:bf:b5:c5:86:ba:8b:71:8d:37:de:
                    25:84:46:09:67:3c:e6:60:b2:51:63:50:c4:a4:d7:
                    2a:09:3f:29:f1:ef:88:56:52:c9:95:05:da:58:e1:
                    8c:b8:e0:96:0b:8d:9b:87:2d:d3:ea:09:65:1e:70:
                    cd:cf:ae:50:51:15:ec:f6:0e:93:ba:49:ff:de:f5:
                    f5:3e:81
                Exponent: 65537 (0x10001)
        X509v3 extensions:
            X509v3 Basic Constraints: 
                CA:FALSE
            Netscape Comment: 
                OpenSSL Generated Certificate
            X509v3 Subject Key Identifier: 
                6E:EA:21:04:6A:13:E5:24:60:7B:FB:A7:DC:0E:EE:68:B2:66:BA:55
            X509v3 Authority Key Identifier: 
                keyid:25:C9:D3:EE:D5:D7:06:83:96:6C:EE:5C:A3:2D:7E:1A:EC:2F:6D:9E

    Signature Algorithm: sha1WithRSAEncryption
         9d:9b:91:c2:b8:98:fc:21:ec:92:fd:96:31:c3:94:23:32:5e:
         a0:f2:52:1d:32:13:61:67:52:50:ff:71:12:71:6e:c1:3a:20:
         28:f4:ce:86:ea:20:7f:9c:e0:02:31:cb:f6:3c:53:84:6d:17:
         3e:5e:98:1d:b4:13:65:6e:fa:62:be:15:17:87:7a:c1:92:da:
         14:fb:56:4f:00:7a:78:51:9a:c6:eb:fa:20:53:47:36:0e:05:
         08:53:cf:a9:5a:a7:33:11:dc:fe:1b:04:d3:be:3c:0a:e6:1f:
         a2:6f:3f:d0:56:94:09:d7:42:04:4c:cc:e6:84:33:c7:44:5d:
         94:e9
-----BEGIN CERTIFICATE-----
MIIEcDCCA9mgAwIBAgIBATANBgkqhkiG9w0BAQUFADCBhDELMAkGA1UEBhMCREUx
DDAKBgNVBAgTA05SVzERMA8GA1UEBxMIRG9ydG11bmQxEjAQBgNVBAoTCXRpYnVs
YS5kZTENMAsGA1UECxMEY2VydDESMBAGA1UEAxMJdGlidWxhLmRlMR0wGwYJKoZI
hvcNAQkBFg50ZWFtQHRpYnVsYS5kZTAeFw0xNTAyMDQyMjE1MzhaFw0xNjAyMDQy
MjE1MzhaMHYxCzAJBgNVBAYTAkRFMQwwCgYDVQQIEwNOUlcxEjAQBgNVBAoTCXRp
YnVsYS5kZTENMAsGA1UECxMEdXNlcjEOMAwGA1UEAxMFbWF0emUxJjAkBgkqhkiG
9w0BCQEWF21hdHRoaWFzQHd1ZWJiZWxpbmcuY29tMIICIjANBgkqhkiG9w0BAQEF
AAOCAg8AMIICCgKCAgEA3nGCCZ5FKKANd769GYvgyEzjJ3ArAWe0AabIBhWC5D3R
e2W7p+mzAs7Z1PiimVbieEb8sx9/OnLoBj+EfKxUoxPlTcZCFH7BJ9v1A/8VcPjP
qHioCUnun18G//OvvdRsBQYkBV5avAgqHQEBnDLBO/3rSSDgXK5PBfJCjLvqDoy6
uny2exHLFxXOiyCk3IPCKFGe9HWr4zSNzTkUF/ilYPOuRpyQvj+WvbCAIfxQ01BV
DXzXyWcSYzs1naIhyG01oBG5ATTtXLuJFhdD52f6NTqKNmStYe7ojaH8BMLsaz6v
5GSTJ+3179N/wc/9jxG2x7Z8Un1G/XfNBuM4qmZlWjBoiyFF0QMW3SyDBgd5i6NH
xxbsYhhiQ3hwBL2mAAVbJKp+ZbCBAXE1gb1c+7Jujq2muONuXzz9kP9H2H6szTXm
ekzmfkjCEzXl15rohLn2c9oSFe/NxV3Uod5nO348EaeWinqXMXPLJkl0WBFd+/jv
3rKHKbhy8xNaRP3J1uPSFZpVMRMMk4ZT2QvNPyDAyjW3sXfWJIlqFgRRoeCHGhh/
lljnXJwVF+u3VQUbpRyN1ObLpZb9j7+1xYa6i3GNN94lhEYJZzzmYLJRY1DEpNcq
CT8p8e+IVlLJlQXaWOGMuOCWC42bhy3T6gllHnDNz65QURXs9g6Tukn/3vX1PoEC
AwEAAaN7MHkwCQYDVR0TBAIwADAsBglghkgBhvhCAQ0EHxYdT3BlblNTTCBHZW5l
cmF0ZWQgQ2VydGlmaWNhdGUwHQYDVR0OBBYEFG7qIQRqE+UkYHv7p9wO7miyZrpV
MB8GA1UdIwQYMBaAFCXJ0+7V1waDlmzuXKMtfhrsL22eMA0GCSqGSIb3DQEBBQUA
A4GBAJ2bkcK4mPwh7JL9ljHDlCMyXqDyUh0yE2FnUlD/cRJxbsE6ICj0zobqIH+c
4AIxy/Y8U4RtFz5emB20E2Vu+mK+FReHesGS2hT7Vk8AenhRmsbr+iBTRzYOBQhT
z6lapzMR3P4bBNO+PArmH6JvP9BWlAnXQgRMzOaEM8dEXZTp
-----END CERTIFICATE-----
